target datalayout = "e-m:e-p270:32:32-p271:32:32-p272:64:64-i64:64-i128:128-f80:128-n8:16:32:64-S128"
target triple = "x86_64-pc-linux-gnu"

%struct.SDL_BlitInfo = type { ptr, ptr, i32, i32, i32, i32, ptr, ptr, i32, i32, i32, i32, ptr, ptr, ptr, ptr, ptr, ptr, i32, i32, i8, i8, i8, i8 }

; Function Attrs: nounwind uwtable
define internal void @SDL_Blit_ABGR8888_XRGB8888_Modulate_Scale(ptr noundef %0) #0 {
  %2 = alloca ptr, align 8
  %3 = alloca i32, align 4
  %4 = alloca i32, align 4
  %5 = alloca i32, align 4
  %6 = alloca i32, align 4
  %7 = alloca i32, align 4
  %8 = alloca i32, align 4
  %9 = alloca i32, align 4
  %10 = alloca i32, align 4
  %11 = alloca i64, align 8
  %12 = alloca i64, align 8
  %13 = alloca i64, align 8
  %14 = alloca i64, align 8
  %15 = alloca i64, align 8
  %16 = alloca i64, align 8
  %17 = alloca ptr, align 8
  %18 = alloca ptr, align 8
  %19 = alloca i32, align 4
  %20 = alloca i16, align 2
  %21 = alloca i16, align 2
  %22 = alloca i16, align 2
  store ptr %0, ptr %2, align 8
  call void @llvm.lifetime.start.p0(i64 4, ptr %3) #2
  %23 = load ptr, ptr %2, align 8
  %24 = getelementptr inbounds nuw %struct.SDL_BlitInfo, ptr %23, i32 0, i32 18
  %25 = load i32, ptr %24, align 8
  store i32 %25, ptr %3, align 4
  call void @llvm.lifetime.start.p0(i64 4, ptr %4) #2
  %26 = load ptr, ptr %2, align 8
  %27 = getelementptr inbounds nuw %struct.SDL_BlitInfo, ptr %26, i32 0, i32 20
  %28 = load i8, ptr %27, align 8
  %29 = zext i8 %28 to i32
  store i32 %29, ptr %4, align 4
  call void @llvm.lifetime.start.p0(i64 4, ptr %5) #2
  %30 = load ptr, ptr %2, align 8
  %31 = getelementptr inbounds nuw %struct.SDL_BlitInfo, ptr %30, i32 0, i32 21
  %32 = load i8, ptr %31, align 1
  %33 = zext i8 %32 to i32
  store i32 %33, ptr %5, align 4
  call void @llvm.lifetime.start.p0(i64 4, ptr %6) #2
  %34 = load ptr, ptr %2, align 8
  %35 = getelementptr inbounds nuw %struct.SDL_BlitInfo, ptr %34, i32 0, i32 22
  %36 = load i8, ptr %35, align 2
  %37 = zext i8 %36 to i32
  store i32 %37, ptr %6, align 4
  call void @llvm.lifetime.start.p0(i64 4, ptr %7) #2
  call void @llvm.lifetime.start.p0(i64 4, ptr %8) #2
  call void @llvm.lifetime.start.p0(i64 4, ptr %9) #2
  call void @llvm.lifetime.start.p0(i64 4, ptr %10) #2
  call void @llvm.lifetime.start.p0(i64 8, ptr %11) #2
  call void @llvm.lifetime.start.p0(i64 8, ptr %12) #2
  call void @llvm.lifetime.start.p0(i64 8, ptr %13) #2
  call void @llvm.lifetime.start.p0(i64 8, ptr %14) #2
  call void @llvm.lifetime.start.p0(i64 8, ptr %15) #2
  call void @llvm.lifetime.start.p0(i64 8, ptr %16) #2
  %38 = load ptr, ptr %2, align 8
  %39 = getelementptr inbounds nuw %struct.SDL_BlitInfo, ptr %38, i32 0, i32 3
  %40 = load i32, ptr %39, align 4
  %41 = sext i32 %40 to i64
  %42 = shl i64 %41, 16
  %43 = load ptr, ptr %2, align 8
  %44 = getelementptr inbounds nuw %struct.SDL_BlitInfo, ptr %43, i32 0, i32 9
  %45 = load i32, ptr %44, align 4
  %46 = sext i32 %45 to i64
  %47 = udiv i64 %42, %46
  store i64 %47, ptr %15, align 8
  %48 = load ptr, ptr %2, align 8
  %49 = getelementptr inbounds nuw %struct.SDL_BlitInfo, ptr %48, i32 0, i32 2
  %50 = load i32, ptr %49, align 8
  %51 = sext i32 %50 to i64
  %52 = shl i64 %51, 16
  %53 = load ptr, ptr %2, align 8
  %54 = getelementptr inbounds nuw %struct.SDL_BlitInfo, ptr %53, i32 0, i32 8
  %55 = load i32, ptr %54, align 8
  %56 = sext i32 %55 to i64
  %57 = udiv i64 %52, %56
  store i64 %57, ptr %16, align 8
  %58 = load i64, ptr %15, align 8
  %59 = udiv i64 %58, 2
  store i64 %59, ptr %13, align 8
  br label %60

60:                                               ; preds = %192, %1
  %61 = load ptr, ptr %2, align 8
  %62 = getelementptr inbounds nuw %struct.SDL_BlitInfo, ptr %61, i32 0, i32 9
  %63 = load i32, ptr %62, align 4
  %64 = add nsw i32 %63, -1
  store i32 %64, ptr %62, align 4
  %65 = icmp ne i32 %63, 0
  br i1 %65, label %66, label %204

66:                                               ; preds = %60
  call void @llvm.lifetime.start.p0(i64 8, ptr %17) #2
  store ptr null, ptr %17, align 8
  call void @llvm.lifetime.start.p0(i64 8, ptr %18) #2
  %67 = load ptr, ptr %2, align 8
  %68 = getelementptr inbounds nuw %struct.SDL_BlitInfo, ptr %67, i32 0, i32 7
  %69 = load ptr, ptr %68, align 8
  store ptr %69, ptr %18, align 8
  call void @llvm.lifetime.start.p0(i64 4, ptr %19) #2
  %70 = load ptr, ptr %2, align 8
  %71 = getelementptr inbounds nuw %struct.SDL_BlitInfo, ptr %70, i32 0, i32 8
  %72 = load i32, ptr %71, align 8
  store i32 %72, ptr %19, align 4
  %73 = load i64, ptr %16, align 8
  %74 = udiv i64 %73, 2
  store i64 %74, ptr %14, align 8
  %75 = load i64, ptr %13, align 8
  %76 = lshr i64 %75, 16
  store i64 %76, ptr %11, align 8
  br label %77

77:                                               ; preds = %177, %66
  %78 = load i32, ptr %19, align 4
  %79 = add nsw i32 %78, -1
  store i32 %79, ptr %19, align 4
  %80 = icmp ne i32 %78, 0
  br i1 %80, label %81, label %192

81:                                               ; preds = %77
  %82 = load i64, ptr %14, align 8
  %83 = lshr i64 %82, 16
  store i64 %83, ptr %12, align 8
  %84 = load ptr, ptr %2, align 8
  %85 = getelementptr inbounds nuw %struct.SDL_BlitInfo, ptr %84, i32 0, i32 1
  %86 = load ptr, ptr %85, align 8
  %87 = load i64, ptr %11, align 8
  %88 = load ptr, ptr %2, align 8
  %89 = getelementptr inbounds nuw %struct.SDL_BlitInfo, ptr %88, i32 0, i32 4
  %90 = load i32, ptr %89, align 8
  %91 = sext i32 %90 to i64
  %92 = mul i64 %87, %91
  %93 = getelementptr inbounds nuw i8, ptr %86, i64 %92
  %94 = load i64, ptr %12, align 8
  %95 = mul i64 %94, 4
  %96 = getelementptr inbounds nuw i8, ptr %93, i64 %95
  store ptr %96, ptr %17, align 8
  %97 = load ptr, ptr %17, align 8
  %98 = load i32, ptr %97, align 4
  store i32 %98, ptr %7, align 4
  %99 = load i32, ptr %7, align 4
  %100 = lshr i32 %99, 16
  %101 = trunc i32 %100 to i8
  %102 = zext i8 %101 to i32
  store i32 %102, ptr %10, align 4
  %103 = load i32, ptr %7, align 4
  %104 = lshr i32 %103, 8
  %105 = trunc i32 %104 to i8
  %106 = zext i8 %105 to i32
  store i32 %106, ptr %9, align 4
  %107 = load i32, ptr %7, align 4
  %108 = trunc i32 %107 to i8
  %109 = zext i8 %108 to i32
  store i32 %109, ptr %8, align 4
  %110 = load i32, ptr %3, align 4
  %111 = and i32 %110, 1
  %112 = icmp ne i32 %111, 0
  br i1 %112, label %113, label %177

113:                                              ; preds = %81
  br label %114

114:                                              ; preds = %113
  call void @llvm.lifetime.start.p0(i64 2, ptr %20) #2
  %115 = load i32, ptr %8, align 4
  %116 = load i32, ptr %4, align 4
  %117 = mul i32 %115, %116
  %118 = trunc i32 %117 to i16
  store i16 %118, ptr %20, align 2
  %119 = load i16, ptr %20, align 2
  %120 = zext i16 %119 to i32
  %121 = add i32 %120, 1
  %122 = trunc i32 %121 to i16
  store i16 %122, ptr %20, align 2
  %123 = load i16, ptr %20, align 2
  %124 = zext i16 %123 to i32
  %125 = ashr i32 %124, 8
  %126 = load i16, ptr %20, align 2
  %127 = zext i16 %126 to i32
  %128 = add nsw i32 %127, %125
  %129 = trunc i32 %128 to i16
  store i16 %129, ptr %20, align 2
  %130 = load i16, ptr %20, align 2
  %131 = zext i16 %130 to i32
  %132 = ashr i32 %131, 8
  store i32 %132, ptr %8, align 4
  call void @llvm.lifetime.end.p0(i64 2, ptr %20) #2
  br label %133

133:                                              ; preds = %114
  br label %134

134:                                              ; preds = %133
  br label %135

135:                                              ; preds = %134
  call void @llvm.lifetime.start.p0(i64 2, ptr %21) #2
  %136 = load i32, ptr %9, align 4
  %137 = load i32, ptr %5, align 4
  %138 = mul i32 %136, %137
  %139 = trunc i32 %138 to i16
  store i16 %139, ptr %21, align 2
  %140 = load i16, ptr %21, align 2
  %141 = zext i16 %140 to i32
  %142 = add i32 %141, 1
  %143 = trunc i32 %142 to i16
  store i16 %143, ptr %21, align 2
  %144 = load i16, ptr %21, align 2
  %145 = zext i16 %144 to i32
  %146 = ashr i32 %145, 8
  %147 = load i16, ptr %21, align 2
  %148 = zext i16 %147 to i32
  %149 = add nsw i32 %148, %146
  %150 = trunc i32 %149 to i16
  store i16 %150, ptr %21, align 2
  %151 = load i16, ptr %21, align 2
  %152 = zext i16 %151 to i32
  %153 = ashr i32 %152, 8
  store i32 %153, ptr %9, align 4
  call void @llvm.lifetime.end.p0(i64 2, ptr %21) #2
  br label %154

154:                                              ; preds = %135
  br label %155

155:                                              ; preds = %154
  br label %156

156:                                              ; preds = %155
  call void @llvm.lifetime.start.p0(i64 2, ptr %22) #2
  %157 = load i32, ptr %10, align 4
  %158 = load i32, ptr %6, align 4
  %159 = mul i32 %157, %158
  %160 = trunc i32 %159 to i16
  store i16 %160, ptr %22, align 2
  %161 = load i16, ptr %22, align 2
  %162 = zext i16 %161 to i32
  %163 = add i32 %162, 1
  %164 = trunc i32 %163 to i16
  store i16 %164, ptr %22, align 2
  %165 = load i16, ptr %22, align 2
  %166 = zext i16 %165 to i32
  %167 = ashr i32 %166, 8
  %168 = load i16, ptr %22, align 2
  %169 = zext i16 %168 to i32
  %170 = add nsw i32 %169, %167
  %171 = trunc i32 %170 to i16
  store i16 %171, ptr %22, align 2
  %172 = load i16, ptr %22, align 2
  %173 = zext i16 %172 to i32
  %174 = ashr i32 %173, 8
  store i32 %174, ptr %10, align 4
  call void @llvm.lifetime.end.p0(i64 2, ptr %22) #2
  br label %175

175:                                              ; preds = %156
  br label %176

176:                                              ; preds = %175
  br label %177

177:                                              ; preds = %176, %81
  %178 = load i32, ptr %8, align 4
  %179 = shl i32 %178, 16
  %180 = load i32, ptr %9, align 4
  %181 = shl i32 %180, 8
  %182 = or i32 %179, %181
  %183 = load i32, ptr %10, align 4
  %184 = or i32 %182, %183
  store i32 %184, ptr %7, align 4
  %185 = load i32, ptr %7, align 4
  %186 = load ptr, ptr %18, align 8
  store i32 %185, ptr %186, align 4
  %187 = load i64, ptr %16, align 8
  %188 = load i64, ptr %14, align 8
  %189 = add i64 %188, %187
  store i64 %189, ptr %14, align 8
  %190 = load ptr, ptr %18, align 8
  %191 = getelementptr inbounds nuw i32, ptr %190, i32 1
  store ptr %191, ptr %18, align 8
  br label %77, !llvm.loop !236

192:                                              ; preds = %77
  %193 = load i64, ptr %15, align 8
  %194 = load i64, ptr %13, align 8
  %195 = add i64 %194, %193
  store i64 %195, ptr %13, align 8
  %196 = load ptr, ptr %2, align 8
  %197 = getelementptr inbounds nuw %struct.SDL_BlitInfo, ptr %196, i32 0, i32 10
  %198 = load i32, ptr %197, align 8
  %199 = load ptr, ptr %2, align 8
  %200 = getelementptr inbounds nuw %struct.SDL_BlitInfo, ptr %199, i32 0, i32 7
  %201 = load ptr, ptr %200, align 8
  %202 = sext i32 %198 to i64
  %203 = getelementptr inbounds i8, ptr %201, i64 %202
  store ptr %203, ptr %200, align 8
  call void @llvm.lifetime.end.p0(i64 4, ptr %19) #2
  call void @llvm.lifetime.end.p0(i64 8, ptr %18) #2
  call void @llvm.lifetime.end.p0(i64 8, ptr %17) #2
  br label %60, !llvm.loop !237

204:                                              ; preds = %60
  call void @llvm.lifetime.end.p0(i64 8, ptr %16) #2
  call void @llvm.lifetime.end.p0(i64 8, ptr %15) #2
  call void @llvm.lifetime.end.p0(i64 8, ptr %14) #2
  call void @llvm.lifetime.end.p0(i64 8, ptr %13) #2
  call void @llvm.lifetime.end.p0(i64 8, ptr %12) #2
  call void @llvm.lifetime.end.p0(i64 8, ptr %11) #2
  call void @llvm.lifetime.end.p0(i64 4, ptr %10) #2
  call void @llvm.lifetime.end.p0(i64 4, ptr %9) #2
  call void @llvm.lifetime.end.p0(i64 4, ptr %8) #2
  call void @llvm.lifetime.end.p0(i64 4, ptr %7) #2
  call void @llvm.lifetime.end.p0(i64 4, ptr %6) #2
  call void @llvm.lifetime.end.p0(i64 4, ptr %5) #2
  call void @llvm.lifetime.end.p0(i64 4, ptr %4) #2
  call void @llvm.lifetime.end.p0(i64 4, ptr %3) #2
  ret void
}